; Function Attrs: mustprogress nofree norecurse nosync nounwind willreturn memory(argmem: read) uwtable
define internal noundef float @_ZNK5faiss12_GLOBAL__N_110IVFScannerINS_17HammingComputer32EE16distance_to_codeEPKh(ptr nocapture noundef nonnull readonly align 8 dereferenceable(168) %0, ptr nocapture noundef readonly %1) unnamed_addr #16 align 2 {
  %3 = getelementptr inbounds i8, ptr %0, i64 136
  %4 = load <4 x i64>, ptr %1, align 8
  %5 = load <4 x i64>, ptr %3, align 8
  %6 = xor <4 x i64> %5, %4
  %7 = tail call <4 x i64> @llvm.ctpop.v4i64(<4 x i64> %6), !range !13
  %8 = tail call i64 @llvm.vector.reduce.add.v4i64(<4 x i64> %7)
  %9 = trunc i64 %8 to i32
  %10 = sitofp i32 %9 to float
  ret float %10
}